target datalayout = "e-m:e-p270:32:32-p271:32:32-p272:64:64-i64:64-i128:128-f80:128-n8:16:32:64-S128"
target triple = "x86_64-pc-linux-gnu"

@uv_library_shutdown.was_shutdown = internal global i32 0, align 4

; Function Attrs: nounwind uwtable
define dso_local void @uv_library_shutdown() #0 {
  %1 = alloca i32, align 4
  %2 = alloca i32, align 4
  store i32 1, ptr %1, align 4
  %3 = load i32, ptr %1, align 4
  %4 = atomicrmw xchg ptr @uv_library_shutdown.was_shutdown, i32 %3 monotonic, align 4
  store i32 %4, ptr %2, align 4
  %5 = load i32, ptr %2, align 4
  %6 = icmp ne i32 %5, 0
  br i1 %6, label %7, label %8

7:                                                ; preds = %0
  br label %9

8:                                                ; preds = %0
  call void @uv__process_title_cleanup()
  call void @uv__signal_cleanup()
  call void @uv__threadpool_cleanup()
  br label %9

9:                                                ; preds = %8, %7
  ret void
}