; Function Attrs: nounwind uwtable
define dso_local void @uv_library_shutdown() #0 {
  %1 = atomicrmw xchg ptr @uv_library_shutdown.was_shutdown, i32 1 monotonic, align 4
  %.not = icmp eq i32 %1, 0
  br i1 %.not, label %2, label %3

2:                                                ; preds = %0
  tail call void @uv__process_title_cleanup() #26
  tail call void @uv__signal_cleanup() #26
  tail call void @uv__threadpool_cleanup() #26
  br label %3

3:                                                ; preds = %0, %2
  ret void
}